target datalayout = "e-m:e-p270:32:32-p271:32:32-p272:64:64-i64:64-i128:128-f80:128-n8:16:32:64-S128"
target triple = "x86_64-pc-linux-gnu"

%struct.AVFilterLink = type { ptr, ptr, ptr, ptr, i32, i32, i32, i32, %struct.AVRational, i32, i32, i32, %struct.AVChannelLayout, %struct.AVRational, ptr, i32, %struct.AVFilterFormatsConfig, %struct.AVFilterFormatsConfig }
%struct.AVChannelLayout = type { i32, i32, %union.anon.1, ptr }
%union.anon.1 = type { i64 }
%struct.AVRational = type { i32, i32 }
%struct.AVFilterFormatsConfig = type { ptr, ptr, ptr, ptr, ptr }
%struct.AVFilterContext = type { ptr, ptr, ptr, ptr, ptr, i32, ptr, ptr, i32, ptr, ptr, i32, i32, ptr, ptr, ptr, ptr, i32, ptr, i32, i32 }
%struct.ColorizeContext = type { ptr, float, float, float, float, i32, [3 x i32], [4 x i32], [4 x i32], [2 x ptr] }

; Function Attrs: nounwind uwtable
define internal float @hue2rgb(float noundef %0, float noundef %1, float noundef %2) #1 {
  %4 = alloca float, align 4
  %5 = alloca float, align 4
  %6 = alloca float, align 4
  %7 = alloca float, align 4
  store float %0, ptr %5, align 4, !tbaa !41
  store float %1, ptr %6, align 4, !tbaa !41
  store float %2, ptr %7, align 4, !tbaa !41
  %8 = load float, ptr %7, align 4, !tbaa !41
  %9 = fcmp nsz olt float %8, 0.000000e+00
  br i1 %9, label %10, label %13

10:                                               ; preds = %3
  %11 = load float, ptr %7, align 4, !tbaa !41
  %12 = fadd nsz float %11, 1.000000e+00
  store float %12, ptr %7, align 4, !tbaa !41
  br label %13

13:                                               ; preds = %10, %3
  %14 = load float, ptr %7, align 4, !tbaa !41
  %15 = fcmp nsz ogt float %14, 1.000000e+00
  br i1 %15, label %16, label %19

16:                                               ; preds = %13
  %17 = load float, ptr %7, align 4, !tbaa !41
  %18 = fsub nsz float %17, 1.000000e+00
  store float %18, ptr %7, align 4, !tbaa !41
  br label %19

19:                                               ; preds = %16, %13
  %20 = load float, ptr %7, align 4, !tbaa !41
  %21 = fcmp nsz olt float %20, 0x3FC5555560000000
  br i1 %21, label %22, label %30

22:                                               ; preds = %19
  %23 = load float, ptr %5, align 4, !tbaa !41
  %24 = load float, ptr %6, align 4, !tbaa !41
  %25 = load float, ptr %5, align 4, !tbaa !41
  %26 = fsub nsz float %24, %25
  %27 = fmul nsz float %26, 6.000000e+00
  %28 = load float, ptr %7, align 4, !tbaa !41
  %29 = call nsz float @llvm.fmuladd.f32(float %27, float %28, float %23)
  store float %29, ptr %4, align 4
  br label %49

30:                                               ; preds = %19
  %31 = load float, ptr %7, align 4, !tbaa !41
  %32 = fcmp nsz olt float %31, 5.000000e-01
  br i1 %32, label %33, label %35

33:                                               ; preds = %30
  %34 = load float, ptr %6, align 4, !tbaa !41
  store float %34, ptr %4, align 4
  br label %49

35:                                               ; preds = %30
  %36 = load float, ptr %7, align 4, !tbaa !41
  %37 = fcmp nsz olt float %36, 0x3FE5555560000000
  br i1 %37, label %38, label %47

38:                                               ; preds = %35
  %39 = load float, ptr %5, align 4, !tbaa !41
  %40 = load float, ptr %6, align 4, !tbaa !41
  %41 = load float, ptr %5, align 4, !tbaa !41
  %42 = fsub nsz float %40, %41
  %43 = load float, ptr %7, align 4, !tbaa !41
  %44 = fsub nsz float 0x3FE5555560000000, %43
  %45 = fmul nsz float %42, %44
  %46 = call nsz float @llvm.fmuladd.f32(float %45, float 6.000000e+00, float %39)
  store float %46, ptr %4, align 4
  br label %49

47:                                               ; preds = %35
  %48 = load float, ptr %5, align 4, !tbaa !41
  store float %48, ptr %4, align 4
  br label %49

49:                                               ; preds = %47, %38, %33, %22
  %50 = load float, ptr %4, align 4
  ret float %50
}

; Function Attrs: nounwind uwtable
define internal void @rgb2yuv(float noundef %0, float noundef %1, float noundef %2, ptr noundef %3, ptr noundef %4, ptr noundef %5, i32 noundef %6) #1 {
  %8 = alloca float, align 4
  %9 = alloca float, align 4
  %10 = alloca float, align 4
  %11 = alloca ptr, align 8
  %12 = alloca ptr, align 8
  %13 = alloca ptr, align 8
  %14 = alloca i32, align 4
  store float %0, ptr %8, align 4, !tbaa !41
  store float %1, ptr %9, align 4, !tbaa !41
  store float %2, ptr %10, align 4, !tbaa !41
  store ptr %3, ptr %11, align 8, !tbaa !59
  store ptr %4, ptr %12, align 8, !tbaa !59
  store ptr %5, ptr %13, align 8, !tbaa !59
  store i32 %6, ptr %14, align 4, !tbaa !43
  %15 = load float, ptr %8, align 4, !tbaa !41
  %16 = fpext nsz float %15 to double
  %17 = load float, ptr %9, align 4, !tbaa !41
  %18 = fpext nsz float %17 to double
  %19 = fmul nsz double 0x3FE3A7C6E8158CBE, %18
  %20 = call nsz double @llvm.fmuladd.f64(double 0x3FC75EF964B56659, double %16, double %19)
  %21 = load float, ptr %10, align 4, !tbaa !41
  %22 = fpext nsz float %21 to double
  %23 = call nsz double @llvm.fmuladd.f64(double 0x3FAFBF63A389526F, double %22, double %20)
  %24 = load i32, ptr %14, align 4, !tbaa !43
  %25 = shl i32 1, %24
  %26 = sub nsw i32 %25, 1
  %27 = sitofp i32 %26 to double
  %28 = fmul nsz double %23, %27
  %29 = fptosi double %28 to i32
  %30 = load ptr, ptr %11, align 8, !tbaa !59
  store i32 %29, ptr %30, align 4, !tbaa !43
  %31 = load float, ptr %8, align 4, !tbaa !41
  %32 = fpext nsz float %31 to double
  %33 = load float, ptr %9, align 4, !tbaa !41
  %34 = fpext nsz float %33 to double
  %35 = fmul nsz double 0x3FD5AB3175C8076F, %34
  %36 = fneg nsz double %35
  %37 = call nsz double @llvm.fmuladd.f64(double 0xBFB9C3AA995052B3, double %32, double %36)
  %38 = load float, ptr %10, align 4, !tbaa !41
  %39 = fpext nsz float %38 to double
  %40 = call nsz double @llvm.fmuladd.f64(double 0x3FDC1C1C1C1C1C1C, double %39, double %37)
  %41 = fadd nsz double %40, 5.000000e-01
  %42 = load i32, ptr %14, align 4, !tbaa !43
  %43 = shl i32 1, %42
  %44 = sub nsw i32 %43, 1
  %45 = sitofp i32 %44 to double
  %46 = fmul nsz double %41, %45
  %47 = fptosi double %46 to i32
  %48 = load ptr, ptr %12, align 8, !tbaa !59
  store i32 %47, ptr %48, align 4, !tbaa !43
  %49 = load float, ptr %8, align 4, !tbaa !41
  %50 = fpext nsz float %49 to double
  %51 = load float, ptr %9, align 4, !tbaa !41
  %52 = fpext nsz float %51 to double
  %53 = fmul nsz double 0x3FD98839FE30FB53, %52
  %54 = fneg nsz double %53
  %55 = call nsz double @llvm.fmuladd.f64(double 0x3FDC1C1C1C1C1C1C, double %50, double %54)
  %56 = load float, ptr %10, align 4, !tbaa !41
  %57 = fpext nsz float %56 to double
  %58 = call nsz double @llvm.fmuladd.f64(double 0xBFA49F10EF590649, double %57, double %55)
  %59 = fadd nsz double %58, 5.000000e-01
  %60 = load i32, ptr %14, align 4, !tbaa !43
  %61 = shl i32 1, %60
  %62 = sub nsw i32 %61, 1
  %63 = sitofp i32 %62 to double
  %64 = fmul nsz double %59, %63
  %65 = fptosi double %64 to i32
  %66 = load ptr, ptr %13, align 8, !tbaa !59
  store i32 %65, ptr %66, align 4, !tbaa !43
  ret void
}

; Function Attrs: nounwind uwtable
define internal void @hsl2rgb(float noundef %0, float noundef %1, float noundef %2, ptr noundef %3, ptr noundef %4, ptr noundef %5) #1 {
  %7 = alloca float, align 4
  %8 = alloca float, align 4
  %9 = alloca float, align 4
  %10 = alloca ptr, align 8
  %11 = alloca ptr, align 8
  %12 = alloca ptr, align 8
  %13 = alloca float, align 4
  %14 = alloca float, align 4
  store float %0, ptr %7, align 4, !tbaa !41
  store float %1, ptr %8, align 4, !tbaa !41
  store float %2, ptr %9, align 4, !tbaa !41
  store ptr %3, ptr %10, align 8, !tbaa !57
  store ptr %4, ptr %11, align 8, !tbaa !57
  store ptr %5, ptr %12, align 8, !tbaa !57
  %15 = load float, ptr %7, align 4, !tbaa !41
  %16 = fdiv nsz float %15, 3.600000e+02
  store float %16, ptr %7, align 4, !tbaa !41
  %17 = load float, ptr %8, align 4, !tbaa !41
  %18 = fcmp nsz oeq float %17, 0.000000e+00
  br i1 %18, label %19, label %24

19:                                               ; preds = %6
  %20 = load float, ptr %9, align 4, !tbaa !41
  %21 = load ptr, ptr %12, align 8, !tbaa !57
  store float %20, ptr %21, align 4, !tbaa !41
  %22 = load ptr, ptr %11, align 8, !tbaa !57
  store float %20, ptr %22, align 4, !tbaa !41
  %23 = load ptr, ptr %10, align 8, !tbaa !57
  store float %20, ptr %23, align 4, !tbaa !41
  br label %63

24:                                               ; preds = %6
  call void @llvm.lifetime.start.p0(i64 4, ptr %13) #8
  %25 = load float, ptr %9, align 4, !tbaa !41
  %26 = fcmp nsz olt float %25, 5.000000e-01
  br i1 %26, label %27, label %32

27:                                               ; preds = %24
  %28 = load float, ptr %9, align 4, !tbaa !41
  %29 = load float, ptr %8, align 4, !tbaa !41
  %30 = fadd nsz float 1.000000e+00, %29
  %31 = fmul nsz float %28, %30
  br label %40

32:                                               ; preds = %24
  %33 = load float, ptr %9, align 4, !tbaa !41
  %34 = load float, ptr %8, align 4, !tbaa !41
  %35 = fadd nsz float %33, %34
  %36 = load float, ptr %9, align 4, !tbaa !41
  %37 = load float, ptr %8, align 4, !tbaa !41
  %38 = fneg nsz float %36
  %39 = call nsz float @llvm.fmuladd.f32(float %38, float %37, float %35)
  br label %40

40:                                               ; preds = %32, %27
  %41 = phi nsz float [ %31, %27 ], [ %39, %32 ]
  store float %41, ptr %13, align 4, !tbaa !41
  call void @llvm.lifetime.start.p0(i64 4, ptr %14) #8
  %42 = load float, ptr %9, align 4, !tbaa !41
  %43 = load float, ptr %13, align 4, !tbaa !41
  %44 = fneg nsz float %43
  %45 = call nsz float @llvm.fmuladd.f32(float 2.000000e+00, float %42, float %44)
  store float %45, ptr %14, align 4, !tbaa !41
  %46 = load float, ptr %14, align 4, !tbaa !41
  %47 = load float, ptr %13, align 4, !tbaa !41
  %48 = load float, ptr %7, align 4, !tbaa !41
  %49 = fadd nsz float %48, 0x3FD5555560000000
  %50 = call nsz float @hue2rgb(float noundef %46, float noundef %47, float noundef %49)
  %51 = load ptr, ptr %10, align 8, !tbaa !57
  store float %50, ptr %51, align 4, !tbaa !41
  %52 = load float, ptr %14, align 4, !tbaa !41
  %53 = load float, ptr %13, align 4, !tbaa !41
  %54 = load float, ptr %7, align 4, !tbaa !41
  %55 = call nsz float @hue2rgb(float noundef %52, float noundef %53, float noundef %54)
  %56 = load ptr, ptr %11, align 8, !tbaa !57
  store float %55, ptr %56, align 4, !tbaa !41
  %57 = load float, ptr %14, align 4, !tbaa !41
  %58 = load float, ptr %13, align 4, !tbaa !41
  %59 = load float, ptr %7, align 4, !tbaa !41
  %60 = fsub nsz float %59, 0x3FD5555560000000
  %61 = call nsz float @hue2rgb(float noundef %57, float noundef %58, float noundef %60)
  %62 = load ptr, ptr %12, align 8, !tbaa !57
  store float %61, ptr %62, align 4, !tbaa !41
  call void @llvm.lifetime.end.p0(i64 4, ptr %14) #8
  call void @llvm.lifetime.end.p0(i64 4, ptr %13) #8
  br label %63

63:                                               ; preds = %40, %19
  ret void
}

; Function Attrs: nounwind uwtable
define internal i32 @filter_frame(ptr noundef %0, ptr noundef %1) #1 {
  %3 = alloca ptr, align 8
  %4 = alloca ptr, align 8
  %5 = alloca ptr, align 8
  %6 = alloca ptr, align 8
  %7 = alloca [3 x float], align 4
  store ptr %0, ptr %3, align 8, !tbaa !4
  store ptr %1, ptr %4, align 8, !tbaa !9
  call void @llvm.lifetime.start.p0(i64 8, ptr %5) #8
  %8 = load ptr, ptr %3, align 8, !tbaa !4
  %9 = getelementptr inbounds nuw %struct.AVFilterLink, ptr %8, i32 0, i32 2
  %10 = load ptr, ptr %9, align 8, !tbaa !11
  store ptr %10, ptr %5, align 8, !tbaa !23
  call void @llvm.lifetime.start.p0(i64 8, ptr %6) #8
  %11 = load ptr, ptr %5, align 8, !tbaa !23
  %12 = getelementptr inbounds nuw %struct.AVFilterContext, ptr %11, i32 0, i32 9
  %13 = load ptr, ptr %12, align 8, !tbaa !24
  store ptr %13, ptr %6, align 8, !tbaa !34
  call void @llvm.lifetime.start.p0(i64 12, ptr %7) #8
  %14 = load ptr, ptr %6, align 8, !tbaa !34
  %15 = getelementptr inbounds nuw %struct.ColorizeContext, ptr %14, i32 0, i32 1
  %16 = load float, ptr %15, align 8, !tbaa !36
  %17 = load ptr, ptr %6, align 8, !tbaa !34
  %18 = getelementptr inbounds nuw %struct.ColorizeContext, ptr %17, i32 0, i32 2
  %19 = load float, ptr %18, align 4, !tbaa !39
  %20 = load ptr, ptr %6, align 8, !tbaa !34
  %21 = getelementptr inbounds nuw %struct.ColorizeContext, ptr %20, i32 0, i32 3
  %22 = load float, ptr %21, align 8, !tbaa !40
  %23 = getelementptr inbounds [3 x float], ptr %7, i64 0, i64 0
  %24 = getelementptr inbounds [3 x float], ptr %7, i64 0, i64 1
  %25 = getelementptr inbounds [3 x float], ptr %7, i64 0, i64 2
  call void @hsl2rgb(float noundef %16, float noundef %19, float noundef %22, ptr noundef %23, ptr noundef %24, ptr noundef %25)
  %26 = getelementptr inbounds [3 x float], ptr %7, i64 0, i64 0
  %27 = load float, ptr %26, align 4, !tbaa !41
  %28 = getelementptr inbounds [3 x float], ptr %7, i64 0, i64 1
  %29 = load float, ptr %28, align 4, !tbaa !41
  %30 = getelementptr inbounds [3 x float], ptr %7, i64 0, i64 2
  %31 = load float, ptr %30, align 4, !tbaa !41
  %32 = load ptr, ptr %6, align 8, !tbaa !34
  %33 = getelementptr inbounds nuw %struct.ColorizeContext, ptr %32, i32 0, i32 6
  %34 = getelementptr inbounds [3 x i32], ptr %33, i64 0, i64 0
  %35 = load ptr, ptr %6, align 8, !tbaa !34
  %36 = getelementptr inbounds nuw %struct.ColorizeContext, ptr %35, i32 0, i32 6
  %37 = getelementptr inbounds [3 x i32], ptr %36, i64 0, i64 1
  %38 = load ptr, ptr %6, align 8, !tbaa !34
  %39 = getelementptr inbounds nuw %struct.ColorizeContext, ptr %38, i32 0, i32 6
  %40 = getelementptr inbounds [3 x i32], ptr %39, i64 0, i64 2
  %41 = load ptr, ptr %6, align 8, !tbaa !34
  %42 = getelementptr inbounds nuw %struct.ColorizeContext, ptr %41, i32 0, i32 5
  %43 = load i32, ptr %42, align 8, !tbaa !42
  call void @rgb2yuv(float noundef %27, float noundef %29, float noundef %31, ptr noundef %34, ptr noundef %37, ptr noundef %40, i32 noundef %43)
  %44 = load ptr, ptr %5, align 8, !tbaa !23
  %45 = load ptr, ptr %4, align 8, !tbaa !9
  %46 = load ptr, ptr %6, align 8, !tbaa !34
  %47 = getelementptr inbounds nuw %struct.ColorizeContext, ptr %46, i32 0, i32 8
  %48 = getelementptr inbounds [4 x i32], ptr %47, i64 0, i64 1
  %49 = load i32, ptr %48, align 4, !tbaa !43
  %50 = load ptr, ptr %5, align 8, !tbaa !23
  %51 = call i32 @ff_filter_get_nb_threads(ptr noundef %50) #9
  %52 = icmp sgt i32 %49, %51
  br i1 %52, label %53, label %56

53:                                               ; preds = %2
  %54 = load ptr, ptr %5, align 8, !tbaa !23
  %55 = call i32 @ff_filter_get_nb_threads(ptr noundef %54) #9
  br label %61

56:                                               ; preds = %2
  %57 = load ptr, ptr %6, align 8, !tbaa !34
  %58 = getelementptr inbounds nuw %struct.ColorizeContext, ptr %57, i32 0, i32 8
  %59 = getelementptr inbounds [4 x i32], ptr %58, i64 0, i64 1
  %60 = load i32, ptr %59, align 4, !tbaa !43
  br label %61

61:                                               ; preds = %56, %53
  %62 = phi i32 [ %55, %53 ], [ %60, %56 ]
  %63 = call i32 @ff_filter_execute(ptr noundef %44, ptr noundef @do_slice, ptr noundef %45, ptr noundef null, i32 noundef %62)
  %64 = load ptr, ptr %5, align 8, !tbaa !23
  %65 = getelementptr inbounds nuw %struct.AVFilterContext, ptr %64, i32 0, i32 7
  %66 = load ptr, ptr %65, align 8, !tbaa !44
  %67 = getelementptr inbounds ptr, ptr %66, i64 0
  %68 = load ptr, ptr %67, align 8, !tbaa !4
  %69 = load ptr, ptr %4, align 8, !tbaa !9
  %70 = call i32 @ff_filter_frame(ptr noundef %68, ptr noundef %69)
  call void @llvm.lifetime.end.p0(i64 12, ptr %7) #8
  call void @llvm.lifetime.end.p0(i64 8, ptr %6) #8
  call void @llvm.lifetime.end.p0(i64 8, ptr %5) #8
  ret i32 %70
}