; Function Attrs: nounwind uwtable
define internal i32 @filter_frame(ptr noundef readonly captures(none) %0, ptr noundef %1) #1 {
  %3 = getelementptr inbounds nuw i8, ptr %0, i64 16
  %4 = load ptr, ptr %3, align 8, !tbaa !4
  %5 = getelementptr inbounds nuw i8, ptr %4, i64 72
  %6 = load ptr, ptr %5, align 8, !tbaa !19
  %7 = getelementptr inbounds nuw i8, ptr %6, i64 8
  %8 = load float, ptr %7, align 8, !tbaa !29
  %9 = getelementptr inbounds nuw i8, ptr %6, i64 12
  %10 = load float, ptr %9, align 4, !tbaa !32
  %11 = getelementptr inbounds nuw i8, ptr %6, i64 16
  %12 = load float, ptr %11, align 8, !tbaa !33
  %13 = fdiv nsz float %8, 3.600000e+02
  %14 = fcmp nsz oeq float %10, 0.000000e+00
  br i1 %14, label %hsl2rgb.exit, label %15

15:                                               ; preds = %2
  %16 = fcmp nsz olt float %12, 5.000000e-01
  br i1 %16, label %17, label %20

17:                                               ; preds = %15
  %18 = fadd nsz float %10, 1.000000e+00
  %19 = fmul nsz float %12, %18
  br label %24

20:                                               ; preds = %15
  %21 = fadd nsz float %10, %12
  %22 = fneg nsz float %12
  %23 = tail call nsz float @llvm.fmuladd.f32(float %22, float %10, float %21)
  br label %24

24:                                               ; preds = %20, %17
  %25 = phi nsz float [ %19, %17 ], [ %23, %20 ]
  %26 = fneg nsz float %25
  %27 = tail call nsz float @llvm.fmuladd.f32(float %12, float 2.000000e+00, float %26)
  %28 = fadd nsz float %13, 0x3FD5555560000000
  %29 = fcmp nsz olt float %28, 0.000000e+00
  %30 = fadd nsz float %28, 1.000000e+00
  %.0.i.i = select nsz i1 %29, float %30, float %28
  %31 = fcmp nsz ogt float %.0.i.i, 1.000000e+00
  %32 = fadd nsz float %.0.i.i, -1.000000e+00
  %.1.i.i = select nsz i1 %31, float %32, float %.0.i.i
  %33 = fcmp nsz olt float %.1.i.i, 0x3FC5555560000000
  br i1 %33, label %34, label %38

34:                                               ; preds = %24
  %35 = fsub nsz float %25, %27
  %36 = fmul nsz float %35, 6.000000e+00
  %37 = tail call nsz float @llvm.fmuladd.f32(float %36, float %.1.i.i, float %27)
  br label %hue2rgb.exit.i

38:                                               ; preds = %24
  %39 = fcmp nsz olt float %.1.i.i, 5.000000e-01
  br i1 %39, label %hue2rgb.exit.i, label %40

40:                                               ; preds = %38
  %41 = fcmp nsz olt float %.1.i.i, 0x3FE5555560000000
  br i1 %41, label %42, label %hue2rgb.exit.i

42:                                               ; preds = %40
  %43 = fsub nsz float %25, %27
  %44 = fsub nsz float 0x3FE5555560000000, %.1.i.i
  %45 = fmul nsz float %44, %43
  %46 = tail call nsz float @llvm.fmuladd.f32(float %45, float 6.000000e+00, float %27)
  br label %hue2rgb.exit.i

hue2rgb.exit.i:                                   ; preds = %42, %40, %38, %34
  %.018.i.i = phi nsz float [ %37, %34 ], [ %46, %42 ], [ %25, %38 ], [ %27, %40 ]
  %47 = fcmp nsz olt float %13, 0.000000e+00
  %48 = fadd nsz float %13, 1.000000e+00
  %.0.i28.i = select nsz i1 %47, float %48, float %13
  %49 = fcmp nsz ogt float %.0.i28.i, 1.000000e+00
  %50 = fadd nsz float %.0.i28.i, -1.000000e+00
  %.1.i29.i = select nsz i1 %49, float %50, float %.0.i28.i
  %51 = fcmp nsz olt float %.1.i29.i, 0x3FC5555560000000
  br i1 %51, label %52, label %56

52:                                               ; preds = %hue2rgb.exit.i
  %53 = fsub nsz float %25, %27
  %54 = fmul nsz float %53, 6.000000e+00
  %55 = tail call nsz float @llvm.fmuladd.f32(float %54, float %.1.i29.i, float %27)
  br label %hue2rgb.exit31.i

56:                                               ; preds = %hue2rgb.exit.i
  %57 = fcmp nsz olt float %.1.i29.i, 5.000000e-01
  br i1 %57, label %hue2rgb.exit31.i, label %58

58:                                               ; preds = %56
  %59 = fcmp nsz olt float %.1.i29.i, 0x3FE5555560000000
  br i1 %59, label %60, label %hue2rgb.exit31.i

60:                                               ; preds = %58
  %61 = fsub nsz float %25, %27
  %62 = fsub nsz float 0x3FE5555560000000, %.1.i29.i
  %63 = fmul nsz float %62, %61
  %64 = tail call nsz float @llvm.fmuladd.f32(float %63, float 6.000000e+00, float %27)
  br label %hue2rgb.exit31.i

hue2rgb.exit31.i:                                 ; preds = %60, %58, %56, %52
  %.018.i30.i = phi nsz float [ %55, %52 ], [ %64, %60 ], [ %25, %56 ], [ %27, %58 ]
  %65 = fadd nsz float %13, 0xBFD5555560000000
  %66 = fcmp nsz olt float %65, 0.000000e+00
  %67 = fadd nsz float %65, 1.000000e+00
  %.0.i32.i = select nsz i1 %66, float %67, float %65
  %68 = fcmp nsz ogt float %.0.i32.i, 1.000000e+00
  %69 = fadd nsz float %.0.i32.i, -1.000000e+00
  %.1.i33.i = select nsz i1 %68, float %69, float %.0.i32.i
  %70 = fcmp nsz olt float %.1.i33.i, 0x3FC5555560000000
  br i1 %70, label %71, label %75

71:                                               ; preds = %hue2rgb.exit31.i
  %72 = fsub nsz float %25, %27
  %73 = fmul nsz float %72, 6.000000e+00
  %74 = tail call nsz float @llvm.fmuladd.f32(float %73, float %.1.i33.i, float %27)
  br label %hsl2rgb.exit

75:                                               ; preds = %hue2rgb.exit31.i
  %76 = fcmp nsz olt float %.1.i33.i, 5.000000e-01
  br i1 %76, label %hsl2rgb.exit, label %77

77:                                               ; preds = %75
  %78 = fcmp nsz olt float %.1.i33.i, 0x3FE5555560000000
  br i1 %78, label %79, label %hsl2rgb.exit

79:                                               ; preds = %77
  %80 = fsub nsz float %25, %27
  %81 = fsub nsz float 0x3FE5555560000000, %.1.i33.i
  %82 = fmul nsz float %81, %80
  %83 = tail call nsz float @llvm.fmuladd.f32(float %82, float 6.000000e+00, float %27)
  br label %hsl2rgb.exit

hsl2rgb.exit:                                     ; preds = %71, %75, %77, %79, %2
  %.sroa.8.0 = phi nsz float [ %12, %2 ], [ %74, %71 ], [ %83, %79 ], [ %25, %75 ], [ %27, %77 ]
  %.sroa.5.0 = phi nsz float [ %12, %2 ], [ %.018.i30.i, %71 ], [ %.018.i30.i, %79 ], [ %.018.i30.i, %75 ], [ %.018.i30.i, %77 ]
  %.sroa.0.0 = phi nsz float [ %12, %2 ], [ %.018.i.i, %71 ], [ %.018.i.i, %79 ], [ %.018.i.i, %75 ], [ %.018.i.i, %77 ]
  %84 = getelementptr inbounds nuw i8, ptr %6, i64 28
  %85 = getelementptr inbounds nuw i8, ptr %6, i64 32
  %86 = getelementptr inbounds nuw i8, ptr %6, i64 36
  %87 = getelementptr inbounds nuw i8, ptr %6, i64 24
  %88 = load i32, ptr %87, align 8, !tbaa !34
  %89 = fpext nsz float %.sroa.0.0 to double
  %90 = fpext nsz float %.sroa.5.0 to double
  %91 = fmul nsz double %90, 0x3FE3A7C6E8158CBE
  %92 = tail call nsz double @llvm.fmuladd.f64(double %89, double 0x3FC75EF964B56659, double %91)
  %93 = fpext nsz float %.sroa.8.0 to double
  %94 = tail call nsz double @llvm.fmuladd.f64(double %93, double 0x3FAFBF63A389526F, double %92)
  %notmask.i = shl nsw i32 -1, %88
  %95 = xor i32 %notmask.i, -1
  %96 = uitofp nneg i32 %95 to double
  %97 = fmul nsz double %94, %96
  %98 = fptosi double %97 to i32
  store i32 %98, ptr %84, align 4, !tbaa !35
  %99 = fmul nsz double %90, 0xBFD5AB3175C8076F
  %100 = tail call nsz double @llvm.fmuladd.f64(double %89, double 0xBFB9C3AA995052B3, double %99)
  %101 = tail call nsz double @llvm.fmuladd.f64(double %93, double 0x3FDC1C1C1C1C1C1C, double %100)
  %102 = fadd nsz double %101, 5.000000e-01
  %103 = fmul nsz double %102, %96
  %104 = fptosi double %103 to i32
  store i32 %104, ptr %85, align 4, !tbaa !35
  %105 = fmul nsz double %90, 0xBFD98839FE30FB53
  %106 = tail call nsz double @llvm.fmuladd.f64(double %89, double 0x3FDC1C1C1C1C1C1C, double %105)
  %107 = tail call nsz double @llvm.fmuladd.f64(double %93, double 0xBFA49F10EF590649, double %106)
  %108 = fadd nsz double %107, 5.000000e-01
  %109 = fmul nsz double %108, %96
  %110 = fptosi double %109 to i32
  store i32 %110, ptr %86, align 4, !tbaa !35
  %111 = getelementptr inbounds nuw i8, ptr %6, i64 60
  %112 = load i32, ptr %111, align 4, !tbaa !35
  %113 = tail call i32 @ff_filter_get_nb_threads(ptr noundef nonnull %4) #7
  %. = tail call i32 @llvm.smin.i32(i32 %112, i32 %113)
  %114 = tail call i32 @ff_filter_execute(ptr noundef nonnull %4, ptr noundef nonnull @do_slice, ptr noundef %1, ptr noundef null, i32 noundef %.) #8
  %115 = getelementptr inbounds nuw i8, ptr %4, i64 56
  %116 = load ptr, ptr %115, align 8, !tbaa !36
  %117 = load ptr, ptr %116, align 8, !tbaa !37
  %118 = tail call i32 @ff_filter_frame(ptr noundef %117, ptr noundef %1) #8
  ret i32 %118
}